; ModuleID = '24/319.c'
source_filename = "24/319.c"
target datalayout = "e-m:e-p270:32:32-p271:32:32-p272:64:64-i64:64-f80:128-n8:16:32:64-S128"
target triple = "x86_64-pc-linux-gnu"

@.str = private unnamed_addr constant [4 x i8] c"%s\0A\00", align 1

; Function Attrs: noinline nounwind uwtable
define dso_local i32 @main(i32 %0, i8** %1) #0 {
  %3 = alloca i32, align 4
  %4 = alloca i32, align 4
  %5 = alloca i8**, align 8
  %6 = alloca [300 x i8], align 16
  %7 = alloca i32, align 4
  %8 = alloca [50 x i32], align 16
  %9 = alloca i32, align 4
  %10 = alloca i32, align 4
  %11 = alloca i32, align 4
  %12 = alloca [50 x [20 x i8]], align 16
  %13 = alloca i32, align 4
  %14 = alloca i32, align 4
  %15 = alloca i32, align 4
  %16 = alloca [10 x i32], align 16
  %17 = alloca [10 x i32], align 16
  %18 = alloca i32, align 4
  store i32 0, i32* %3, align 4
  store i32 %0, i32* %4, align 4
  store i8** %1, i8*** %5, align 8
  %19 = getelementptr inbounds [300 x i8], [300 x i8]* %6, i64 0, i64 0
  %20 = call i32 (i8*, ...) bitcast (i32 (...)* @gets to i32 (i8*, ...)*)(i8* %19)
  %21 = getelementptr inbounds [300 x i8], [300 x i8]* %6, i64 0, i64 0
  %22 = call i64 @strlen(i8* %21) #3
  %23 = trunc i64 %22 to i32
  store i32 %23, i32* %7, align 4
  store i32 0, i32* %10, align 4
  store i32 0, i32* %11, align 4
  store i32 0, i32* %9, align 4
  br label %24

24:                                               ; preds = %58, %2
  %25 = load i32, i32* %9, align 4
  %26 = load i32, i32* %7, align 4
  %27 = icmp slt i32 %25, %26
  br i1 %27, label %28, label %61

28:                                               ; preds = %24
  %29 = load i32, i32* %9, align 4
  %30 = sext i32 %29 to i64
  %31 = getelementptr inbounds [300 x i8], [300 x i8]* %6, i64 0, i64 %30
  %32 = load i8, i8* %31, align 1
  %33 = sext i8 %32 to i32
  %34 = icmp ne i32 %33, 32
  br i1 %34, label %35, label %48

35:                                               ; preds = %28
  %36 = load i32, i32* %9, align 4
  %37 = sext i32 %36 to i64
  %38 = getelementptr inbounds [300 x i8], [300 x i8]* %6, i64 0, i64 %37
  %39 = load i8, i8* %38, align 1
  %40 = load i32, i32* %11, align 4
  %41 = sext i32 %40 to i64
  %42 = getelementptr inbounds [50 x [20 x i8]], [50 x [20 x i8]]* %12, i64 0, i64 %41
  %43 = load i32, i32* %10, align 4
  %44 = sext i32 %43 to i64
  %45 = getelementptr inbounds [20 x i8], [20 x i8]* %42, i64 0, i64 %44
  store i8 %39, i8* %45, align 1
  %46 = load i32, i32* %10, align 4
  %47 = add nsw i32 %46, 1
  store i32 %47, i32* %10, align 4
  br label %57

48:                                               ; preds = %28
  %49 = load i32, i32* %11, align 4
  %50 = sext i32 %49 to i64
  %51 = getelementptr inbounds [50 x [20 x i8]], [50 x [20 x i8]]* %12, i64 0, i64 %50
  %52 = load i32, i32* %10, align 4
  %53 = sext i32 %52 to i64
  %54 = getelementptr inbounds [20 x i8], [20 x i8]* %51, i64 0, i64 %53
  store i8 0, i8* %54, align 1
  %55 = load i32, i32* %11, align 4
  %56 = add nsw i32 %55, 1
  store i32 %56, i32* %11, align 4
  store i32 0, i32* %10, align 4
  br label %57

57:                                               ; preds = %48, %35
  br label %58

58:                                               ; preds = %57
  %59 = load i32, i32* %9, align 4
  %60 = add nsw i32 %59, 1
  store i32 %60, i32* %9, align 4
  br label %24

61:                                               ; preds = %24
  %62 = load i32, i32* %11, align 4
  %63 = sext i32 %62 to i64
  %64 = getelementptr inbounds [50 x [20 x i8]], [50 x [20 x i8]]* %12, i64 0, i64 %63
  %65 = load i32, i32* %10, align 4
  %66 = sext i32 %65 to i64
  %67 = getelementptr inbounds [20 x i8], [20 x i8]* %64, i64 0, i64 %66
  store i8 0, i8* %67, align 1
  store i32 0, i32* %9, align 4
  br label %68

68:                                               ; preds = %82, %61
  %69 = load i32, i32* %9, align 4
  %70 = load i32, i32* %11, align 4
  %71 = icmp sle i32 %69, %70
  br i1 %71, label %72, label %85

72:                                               ; preds = %68
  %73 = load i32, i32* %9, align 4
  %74 = sext i32 %73 to i64
  %75 = getelementptr inbounds [50 x [20 x i8]], [50 x [20 x i8]]* %12, i64 0, i64 %74
  %76 = getelementptr inbounds [20 x i8], [20 x i8]* %75, i64 0, i64 0
  %77 = call i64 @strlen(i8* %76) #3
  %78 = trunc i64 %77 to i32
  %79 = load i32, i32* %9, align 4
  %80 = sext i32 %79 to i64
  %81 = getelementptr inbounds [50 x i32], [50 x i32]* %8, i64 0, i64 %80
  store i32 %78, i32* %81, align 4
  br label %82

82:                                               ; preds = %72
  %83 = load i32, i32* %9, align 4
  %84 = add nsw i32 %83, 1
  store i32 %84, i32* %9, align 4
  br label %68

85:                                               ; preds = %68
  %86 = getelementptr inbounds [50 x i32], [50 x i32]* %8, i64 0, i64 0
  %87 = load i32, i32* %86, align 16
  store i32 %87, i32* %13, align 4
  %88 = getelementptr inbounds [50 x i32], [50 x i32]* %8, i64 0, i64 0
  %89 = load i32, i32* %88, align 16
  store i32 %89, i32* %14, align 4
  store i32 0, i32* %9, align 4
  br label %90

90:                                               ; preds = %120, %85
  %91 = load i32, i32* %9, align 4
  %92 = load i32, i32* %11, align 4
  %93 = icmp sle i32 %91, %92
  br i1 %93, label %94, label %123

94:                                               ; preds = %90
  %95 = load i32, i32* %9, align 4
  %96 = sext i32 %95 to i64
  %97 = getelementptr inbounds [50 x i32], [50 x i32]* %8, i64 0, i64 %96
  %98 = load i32, i32* %97, align 4
  %99 = load i32, i32* %13, align 4
  %100 = icmp sgt i32 %98, %99
  br i1 %100, label %101, label %106

101:                                              ; preds = %94
  %102 = load i32, i32* %9, align 4
  %103 = sext i32 %102 to i64
  %104 = getelementptr inbounds [50 x i32], [50 x i32]* %8, i64 0, i64 %103
  %105 = load i32, i32* %104, align 4
  store i32 %105, i32* %13, align 4
  br label %119

106:                                              ; preds = %94
  %107 = load i32, i32* %9, align 4
  %108 = sext i32 %107 to i64
  %109 = getelementptr inbounds [50 x i32], [50 x i32]* %8, i64 0, i64 %108
  %110 = load i32, i32* %109, align 4
  %111 = load i32, i32* %14, align 4
  %112 = icmp slt i32 %110, %111
  br i1 %112, label %113, label %118

113:                                              ; preds = %106
  %114 = load i32, i32* %9, align 4
  %115 = sext i32 %114 to i64
  %116 = getelementptr inbounds [50 x i32], [50 x i32]* %8, i64 0, i64 %115
  %117 = load i32, i32* %116, align 4
  store i32 %117, i32* %14, align 4
  br label %118

118:                                              ; preds = %113, %106
  br label %119

119:                                              ; preds = %118, %101
  br label %120

120:                                              ; preds = %119
  %121 = load i32, i32* %9, align 4
  %122 = add nsw i32 %121, 1
  store i32 %122, i32* %9, align 4
  br label %90

123:                                              ; preds = %90
  store i32 0, i32* %15, align 4
  store i32 0, i32* %18, align 4
  store i32 0, i32* %9, align 4
  br label %124

124:                                              ; preds = %158, %123
  %125 = load i32, i32* %9, align 4
  %126 = load i32, i32* %11, align 4
  %127 = icmp sle i32 %125, %126
  br i1 %127, label %128, label %161

128:                                              ; preds = %124
  %129 = load i32, i32* %9, align 4
  %130 = sext i32 %129 to i64
  %131 = getelementptr inbounds [50 x i32], [50 x i32]* %8, i64 0, i64 %130
  %132 = load i32, i32* %131, align 4
  %133 = load i32, i32* %13, align 4
  %134 = icmp eq i32 %132, %133
  br i1 %134, label %135, label %142

135:                                              ; preds = %128
  %136 = load i32, i32* %9, align 4
  %137 = load i32, i32* %15, align 4
  %138 = sext i32 %137 to i64
  %139 = getelementptr inbounds [10 x i32], [10 x i32]* %16, i64 0, i64 %138
  store i32 %136, i32* %139, align 4
  %140 = load i32, i32* %15, align 4
  %141 = add nsw i32 %140, 1
  store i32 %141, i32* %15, align 4
  br label %157

142:                                              ; preds = %128
  %143 = load i32, i32* %9, align 4
  %144 = sext i32 %143 to i64
  %145 = getelementptr inbounds [50 x i32], [50 x i32]* %8, i64 0, i64 %144
  %146 = load i32, i32* %145, align 4
  %147 = load i32, i32* %14, align 4
  %148 = icmp eq i32 %146, %147
  br i1 %148, label %149, label %156

149:                                              ; preds = %142
  %150 = load i32, i32* %9, align 4
  %151 = load i32, i32* %18, align 4
  %152 = sext i32 %151 to i64
  %153 = getelementptr inbounds [10 x i32], [10 x i32]* %17, i64 0, i64 %152
  store i32 %150, i32* %153, align 4
  %154 = load i32, i32* %18, align 4
  %155 = add nsw i32 %154, 1
  store i32 %155, i32* %18, align 4
  br label %156

156:                                              ; preds = %149, %142
  br label %157

157:                                              ; preds = %156, %135
  br label %158

158:                                              ; preds = %157
  %159 = load i32, i32* %9, align 4
  %160 = add nsw i32 %159, 1
  store i32 %160, i32* %9, align 4
  br label %124

161:                                              ; preds = %124
  %162 = getelementptr inbounds [10 x i32], [10 x i32]* %16, i64 0, i64 0
  %163 = load i32, i32* %162, align 16
  %164 = sext i32 %163 to i64
  %165 = getelementptr inbounds [50 x [20 x i8]], [50 x [20 x i8]]* %12, i64 0, i64 %164
  %166 = getelementptr inbounds [20 x i8], [20 x i8]* %165, i64 0, i64 0
  %167 = call i32 (i8*, ...) @printf(i8* getelementptr inbounds ([4 x i8], [4 x i8]* @.str, i64 0, i64 0), i8* %166)
  %168 = getelementptr inbounds [10 x i32], [10 x i32]* %17, i64 0, i64 0
  %169 = load i32, i32* %168, align 16
  %170 = sext i32 %169 to i64
  %171 = getelementptr inbounds [50 x [20 x i8]], [50 x [20 x i8]]* %12, i64 0, i64 %170
  %172 = getelementptr inbounds [20 x i8], [20 x i8]* %171, i64 0, i64 0
  %173 = call i32 (i8*, ...) @printf(i8* getelementptr inbounds ([4 x i8], [4 x i8]* @.str, i64 0, i64 0), i8* %172)
  ret i32 0
}

declare dso_local i32 @gets(...) #1

; Function Attrs: nounwind readonly
declare dso_local i64 @strlen(i8*) #2

declare dso_local i32 @printf(i8*, ...) #1


!llvm.module.flags = !{!0}
!llvm.ident = !{!1}

!0 = !{i32 1, !"wchar_size", i32 4}
!1 = !{!"clang version 10.0.0-4ubuntu1 "}
